target datalayout = "e-m:e-p270:32:32-p271:32:32-p272:64:64-i64:64-i128:128-f80:128-n8:16:32:64-S128"
target triple = "x86_64-pc-linux-gnu"

%"union.pxrInternal_v0_24__pxrReserved__::pxr_half::half::uif" = type { i32 }
%"class.pxrInternal_v0_24__pxrReserved__::pxr_half::half" = type { i16 }

@_ZN32pxrInternal_v0_24__pxrReserved__8pxr_half4half5_eLutE = external constant [512 x i16], align 16

; Function Attrs: mustprogress uwtable
define linkonce_odr void @_ZN32pxrInternal_v0_24__pxrReserved__8pxr_half4halfC2Ef(ptr noundef nonnull align 2 dereferenceable(2) %0, float noundef %1) unnamed_addr #0 comdat align 2 {
  %3 = alloca ptr, align 8
  %4 = alloca float, align 4
  %5 = alloca %"union.pxrInternal_v0_24__pxrReserved__::pxr_half::half::uif", align 4
  %6 = alloca i32, align 4
  %7 = alloca i32, align 4
  store ptr %0, ptr %3, align 8
  store float %1, ptr %4, align 4
  %8 = load ptr, ptr %3, align 8
  %9 = load float, ptr %4, align 4
  store float %9, ptr %5, align 4
  %10 = load float, ptr %4, align 4
  %11 = fcmp oeq float %10, 0.000000e+00
  br i1 %11, label %12, label %17

12:                                               ; preds = %2
  %13 = load i32, ptr %5, align 4
  %14 = lshr i32 %13, 16
  %15 = trunc i32 %14 to i16
  %16 = getelementptr inbounds nuw %"class.pxrInternal_v0_24__pxrReserved__::pxr_half::half", ptr %8, i32 0, i32 0
  store i16 %15, ptr %16, align 2
  br label %47

17:                                               ; preds = %2
  %18 = load i32, ptr %5, align 4
  %19 = lshr i32 %18, 23
  %20 = and i32 %19, 511
  store i32 %20, ptr %6, align 4
  %21 = load i32, ptr %6, align 4
  %22 = sext i32 %21 to i64
  %23 = getelementptr inbounds [512 x i16], ptr @_ZN32pxrInternal_v0_24__pxrReserved__8pxr_half4half5_eLutE, i64 0, i64 %22
  %24 = load i16, ptr %23, align 2
  %25 = zext i16 %24 to i32
  store i32 %25, ptr %6, align 4
  %26 = load i32, ptr %6, align 4
  %27 = icmp ne i32 %26, 0
  br i1 %27, label %28, label %42

28:                                               ; preds = %17
  %29 = load i32, ptr %5, align 4
  %30 = and i32 %29, 8388607
  store i32 %30, ptr %7, align 4
  %31 = load i32, ptr %6, align 4
  %32 = load i32, ptr %7, align 4
  %33 = add nsw i32 %32, 4095
  %34 = load i32, ptr %7, align 4
  %35 = ashr i32 %34, 13
  %36 = and i32 %35, 1
  %37 = add nsw i32 %33, %36
  %38 = ashr i32 %37, 13
  %39 = add nsw i32 %31, %38
  %40 = trunc i32 %39 to i16
  %41 = getelementptr inbounds nuw %"class.pxrInternal_v0_24__pxrReserved__::pxr_half::half", ptr %8, i32 0, i32 0
  store i16 %40, ptr %41, align 2
  br label %46

42:                                               ; preds = %17
  %43 = load i32, ptr %5, align 4
  %44 = call noundef signext i16 @_ZN32pxrInternal_v0_24__pxrReserved__8pxr_half4half7convertEi(i32 noundef %43)
  %45 = getelementptr inbounds nuw %"class.pxrInternal_v0_24__pxrReserved__::pxr_half::half", ptr %8, i32 0, i32 0
  store i16 %44, ptr %45, align 2
  br label %46

46:                                               ; preds = %42, %28
  br label %47

47:                                               ; preds = %46, %12
  ret void
}

; Function Attrs: mustprogress uwtable
define linkonce_odr noundef nonnull align 2 dereferenceable(2) ptr @_ZN32pxrInternal_v0_24__pxrReserved__8pxr_half4halfaSEf(ptr noundef nonnull align 2 dereferenceable(2) %0, float noundef %1) #0 comdat align 2 {
  %3 = alloca ptr, align 8
  %4 = alloca float, align 4
  %5 = alloca %"class.pxrInternal_v0_24__pxrReserved__::pxr_half::half", align 2
  store ptr %0, ptr %3, align 8
  store float %1, ptr %4, align 4
  %6 = load ptr, ptr %3, align 8
  %7 = load float, ptr %4, align 4
  call void @_ZN32pxrInternal_v0_24__pxrReserved__8pxr_half4halfC2Ef(ptr noundef nonnull align 2 dereferenceable(2) %5, float noundef %7)
  call void @llvm.memcpy.p0.p0.i64(ptr align 2 %6, ptr align 2 %5, i64 2, i1 false)
  ret ptr %6
}

; Function Attrs: mustprogress uwtable
define internal void @_ZN32pxrInternal_v0_24__pxrReserved__12_GLOBAL__N_114ImageProcessorIfE11FloatToHalfEPfPNS_8pxr_half4halfEiii(ptr noundef %0, ptr noundef %1, i32 noundef %2, i32 noundef %3, i32 noundef %4) #0 align 2 {
  %6 = alloca ptr, align 8
  %7 = alloca ptr, align 8
  %8 = alloca i32, align 4
  %9 = alloca i32, align 4
  %10 = alloca i32, align 4
  %11 = alloca i32, align 4
  store ptr %0, ptr %6, align 8
  store ptr %1, ptr %7, align 8
  store i32 %2, ptr %8, align 4
  store i32 %3, ptr %9, align 4
  store i32 %4, ptr %10, align 4
  %12 = load ptr, ptr %6, align 8
  %13 = icmp ne ptr %12, null
  br i1 %13, label %14, label %17

14:                                               ; preds = %5
  %15 = load ptr, ptr %7, align 8
  %16 = icmp ne ptr %15, null
  br i1 %16, label %18, label %17

17:                                               ; preds = %14, %5
  br label %41

18:                                               ; preds = %14
  store i32 0, ptr %11, align 4
  br label %19

19:                                               ; preds = %38, %18
  %20 = load i32, ptr %11, align 4
  %21 = load i32, ptr %8, align 4
  %22 = load i32, ptr %9, align 4
  %23 = mul nsw i32 %21, %22
  %24 = load i32, ptr %10, align 4
  %25 = mul nsw i32 %23, %24
  %26 = icmp slt i32 %20, %25
  br i1 %26, label %27, label %41

27:                                               ; preds = %19
  %28 = load ptr, ptr %6, align 8
  %29 = load i32, ptr %11, align 4
  %30 = sext i32 %29 to i64
  %31 = getelementptr inbounds float, ptr %28, i64 %30
  %32 = load float, ptr %31, align 4
  %33 = load ptr, ptr %7, align 8
  %34 = load i32, ptr %11, align 4
  %35 = sext i32 %34 to i64
  %36 = getelementptr inbounds %"class.pxrInternal_v0_24__pxrReserved__::pxr_half::half", ptr %33, i64 %35
  %37 = call noundef nonnull align 2 dereferenceable(2) ptr @_ZN32pxrInternal_v0_24__pxrReserved__8pxr_half4halfaSEf(ptr noundef nonnull align 2 dereferenceable(2) %36, float noundef %32)
  br label %38

38:                                               ; preds = %27
  %39 = load i32, ptr %11, align 4
  %40 = add nsw i32 %39, 1
  store i32 %40, ptr %11, align 4
  br label %19, !llvm.loop !24

41:                                               ; preds = %19, %17
  ret void
}