; Function Attrs: mustprogress uwtable
define internal fastcc void @_ZN32pxrInternal_v0_24__pxrReserved__12_GLOBAL__N_114ImageProcessorIfE11FloatToHalfEPfPNS_8pxr_half4halfEiii(ptr noundef readonly %0, ptr noundef writeonly %1, i32 noundef %2, i32 noundef %3, i32 noundef %4) unnamed_addr #0 align 2 {
  %6 = icmp ne ptr %0, null
  %7 = icmp ne ptr %1, null
  %or.cond = and i1 %6, %7
  br i1 %or.cond, label %.preheader, label %.loopexit

.preheader:                                       ; preds = %5
  %8 = mul nsw i32 %3, %2
  %9 = mul nsw i32 %8, %4
  %10 = icmp sgt i32 %9, 0
  br i1 %10, label %.lr.ph.preheader, label %.loopexit

.lr.ph.preheader:                                 ; preds = %.preheader
  %wide.trip.count = zext nneg i32 %9 to i64
  br label %.lr.ph

.lr.ph:                                           ; preds = %.lr.ph.preheader, %_ZN32pxrInternal_v0_24__pxrReserved__8pxr_half4halfaSEf.exit
  %indvars.iv = phi i64 [ 0, %.lr.ph.preheader ], [ %indvars.iv.next, %_ZN32pxrInternal_v0_24__pxrReserved__8pxr_half4halfaSEf.exit ]
  %11 = getelementptr inbounds float, ptr %0, i64 %indvars.iv
  %12 = load float, ptr %11, align 4
  %13 = getelementptr inbounds %"class.pxrInternal_v0_24__pxrReserved__::pxr_half::half", ptr %1, i64 %indvars.iv
  %14 = bitcast float %12 to i32
  %15 = fcmp oeq float %12, 0.000000e+00
  br i1 %15, label %16, label %19

16:                                               ; preds = %.lr.ph
  %17 = lshr exact i32 %14, 16
  %18 = trunc nuw i32 %17 to i16
  br label %_ZN32pxrInternal_v0_24__pxrReserved__8pxr_half4halfaSEf.exit

19:                                               ; preds = %.lr.ph
  %20 = lshr i32 %14, 23
  %21 = zext nneg i32 %20 to i64
  %22 = getelementptr inbounds [512 x i16], ptr @_ZN32pxrInternal_v0_24__pxrReserved__8pxr_half4half5_eLutE, i64 0, i64 %21
  %23 = load i16, ptr %22, align 2
  %.not.i.i = icmp eq i16 %23, 0
  br i1 %.not.i.i, label %33, label %24

24:                                               ; preds = %19
  %25 = and i32 %14, 8388607
  %26 = add nuw nsw i32 %25, 4095
  %27 = lshr i32 %14, 13
  %28 = and i32 %27, 1
  %29 = add nuw nsw i32 %26, %28
  %30 = lshr i32 %29, 13
  %31 = trunc nuw nsw i32 %30 to i16
  %32 = add i16 %23, %31
  br label %_ZN32pxrInternal_v0_24__pxrReserved__8pxr_half4halfaSEf.exit

33:                                               ; preds = %19
  %34 = tail call noundef signext i16 @_ZN32pxrInternal_v0_24__pxrReserved__8pxr_half4half7convertEi(i32 noundef %14)
  br label %_ZN32pxrInternal_v0_24__pxrReserved__8pxr_half4halfaSEf.exit

_ZN32pxrInternal_v0_24__pxrReserved__8pxr_half4halfaSEf.exit: ; preds = %16, %24, %33
  %.sink.i.i = phi i16 [ %32, %24 ], [ %34, %33 ], [ %18, %16 ]
  store i16 %.sink.i.i, ptr %13, align 2
  %indvars.iv.next = add nuw nsw i64 %indvars.iv, 1
  %exitcond.not = icmp eq i64 %indvars.iv.next, %wide.trip.count
  br i1 %exitcond.not, label %.loopexit, label %.lr.ph, !llvm.loop !27

.loopexit:                                        ; preds = %_ZN32pxrInternal_v0_24__pxrReserved__8pxr_half4halfaSEf.exit, %.preheader, %5
  ret void
}